; Function Attrs: mustprogress uwtable
define void @_ZN6duckdb7NextDayERiS0_S0_(ptr noundef nonnull align 4 captures(none) dereferenceable(4) %0, ptr noundef nonnull align 4 captures(none) dereferenceable(4) %1, ptr noundef nonnull align 4 captures(none) dereferenceable(4) %2) local_unnamed_addr #0 {
  %4 = load i32, ptr %2, align 4, !tbaa !86
  %5 = add nsw i32 %4, 1
  store i32 %5, ptr %2, align 4, !tbaa !86
  %6 = load i32, ptr %0, align 4, !tbaa !86
  %7 = load i32, ptr %1, align 4, !tbaa !86
  %8 = tail call noundef zeroext i1 @_ZN6duckdb4Date7IsValidEiii(i32 noundef %6, i32 noundef %7, i32 noundef %5)
  br i1 %8, label %16, label %9

9:                                                ; preds = %3
  %10 = load i32, ptr %1, align 4, !tbaa !86
  %11 = add nsw i32 %10, 1
  store i32 %11, ptr %1, align 4, !tbaa !86
  %12 = icmp eq i32 %11, 13
  br i1 %12, label %13, label %_ZN6duckdb9NextMonthERiS0_.exit

13:                                               ; preds = %9
  %14 = load i32, ptr %0, align 4, !tbaa !86
  %15 = add nsw i32 %14, 1
  store i32 %15, ptr %0, align 4, !tbaa !86
  store i32 1, ptr %1, align 4, !tbaa !86
  br label %_ZN6duckdb9NextMonthERiS0_.exit

_ZN6duckdb9NextMonthERiS0_.exit:                  ; preds = %9, %13
  store i32 1, ptr %2, align 4, !tbaa !86
  br label %16

16:                                               ; preds = %_ZN6duckdb9NextMonthERiS0_.exit, %3
  ret void
}